target datalayout = "e-m:e-p270:32:32-p271:32:32-p272:64:64-i64:64-i128:128-f80:128-n8:16:32:64-S128"
target triple = "x86_64-unknown-linux-gnu"

%"class.cvc5::internal::theory::arith::linear::ArithEntailmentCheckSideEffects" = type { ptr }

@_ZN4cvc58internal6theory5arith6linear17InferBoundsResultC1Ev = hidden unnamed_addr alias void (ptr), ptr @_ZN4cvc58internal6theory5arith6linear17InferBoundsResultC2Ev

; Function Attrs: mustprogress uwtable
define hidden noundef nonnull align 8 dereferenceable(96) ptr @_ZN4cvc58internal6theory5arith6linear31ArithEntailmentCheckSideEffects21getSimplexSideEffectsEv(ptr noundef nonnull align 8 dereferenceable(8) %this) #5 align 2 personality ptr @__gxx_personality_v0 {
entry:
  %this.addr = alloca ptr, align 8
  %exn.slot = alloca ptr, align 8
  %ehselector.slot = alloca i32, align 4
  store ptr %this, ptr %this.addr, align 8
  %this1 = load ptr, ptr %this.addr, align 8
  %d_simplexSideEffects = getelementptr inbounds %"class.cvc5::internal::theory::arith::linear::ArithEntailmentCheckSideEffects", ptr %this1, i32 0, i32 0
  %0 = load ptr, ptr %d_simplexSideEffects, align 8
  %cmp = icmp eq ptr %0, null
  br i1 %cmp, label %if.then, label %if.end

if.then:                                          ; preds = %entry
  %call = call noalias noundef nonnull ptr @_Znwm(i64 noundef 96) #17
  invoke void @_ZN4cvc58internal6theory5arith6linear17InferBoundsResultC1Ev(ptr noundef nonnull align 8 dereferenceable(96) %call)
          to label %invoke.cont unwind label %lpad

invoke.cont:                                      ; preds = %if.then
  %d_simplexSideEffects2 = getelementptr inbounds %"class.cvc5::internal::theory::arith::linear::ArithEntailmentCheckSideEffects", ptr %this1, i32 0, i32 0
  store ptr %call, ptr %d_simplexSideEffects2, align 8
  br label %if.end

lpad:                                             ; preds = %if.then
  %1 = landingpad { ptr, i32 }
          cleanup
  %2 = extractvalue { ptr, i32 } %1, 0
  store ptr %2, ptr %exn.slot, align 8
  %3 = extractvalue { ptr, i32 } %1, 1
  store i32 %3, ptr %ehselector.slot, align 4
  call void @_ZdlPv(ptr noundef %call) #16
  br label %eh.resume

if.end:                                           ; preds = %invoke.cont, %entry
  %d_simplexSideEffects3 = getelementptr inbounds %"class.cvc5::internal::theory::arith::linear::ArithEntailmentCheckSideEffects", ptr %this1, i32 0, i32 0
  %4 = load ptr, ptr %d_simplexSideEffects3, align 8
  ret ptr %4

eh.resume:                                        ; preds = %lpad
  %exn = load ptr, ptr %exn.slot, align 8
  %sel = load i32, ptr %ehselector.slot, align 4
  %lpad.val = insertvalue { ptr, i32 } poison, ptr %exn, 0
  %lpad.val4 = insertvalue { ptr, i32 } %lpad.val, i32 %sel, 1
  resume { ptr, i32 } %lpad.val4
}