; Function Attrs: mustprogress uwtable
define hidden noundef nonnull align 8 dereferenceable(96) ptr @_ZN4cvc58internal6theory5arith6linear31ArithEntailmentCheckSideEffects21getSimplexSideEffectsEv(ptr noundef nonnull align 8 captures(none) dereferenceable(8) %this) local_unnamed_addr #9 align 2 personality ptr @__gxx_personality_v0 {
entry:
  %0 = load ptr, ptr %this, align 8
  %cmp = icmp eq ptr %0, null
  br i1 %cmp, label %if.then, label %if.end

if.then:                                          ; preds = %entry
  %call = tail call noalias noundef nonnull dereferenceable(96) ptr @_Znwm(i64 noundef 96) #25
  invoke void @_ZN4cvc58internal6theory5arith6linear17InferBoundsResultC2Ev(ptr noundef nonnull align 8 dereferenceable(96) %call)
          to label %invoke.cont unwind label %lpad

invoke.cont:                                      ; preds = %if.then
  store ptr %call, ptr %this, align 8
  br label %if.end

lpad:                                             ; preds = %if.then
  %1 = landingpad { ptr, i32 }
          cleanup
  tail call void @_ZdlPv(ptr noundef nonnull %call) #23
  resume { ptr, i32 } %1

if.end:                                           ; preds = %invoke.cont, %entry
  %2 = phi ptr [ %call, %invoke.cont ], [ %0, %entry ]
  ret ptr %2
}